target datalayout = "e-m:e-p270:32:32-p271:32:32-p272:64:64-i64:64-i128:128-f80:128-n8:16:32:64-S128"
target triple = "x86_64-unknown-linux-gnu"

%"class.icu_75::UObject" = type { ptr }
%"class.icu_75::Normalizer2Impl" = type { %"class.icu_75::UObject", i16, i16, i16, i16, i16, i16, i16, i16, i16, i16, i16, i16, ptr, ptr, ptr, ptr, %"struct.icu_75::UInitOnce", ptr }
%"struct.icu_75::UInitOnce" = type { %"struct.std::atomic", i32 }
%"struct.std::atomic" = type { %"struct.std::__atomic_base" }
%"struct.std::__atomic_base" = type { i32 }
%struct.UCPTrie = type { ptr, %union.UCPTrieData, i32, i32, i32, i16, i8, i8, i32, i16, i16, i32, i32 }
%union.UCPTrieData = type { ptr }

; Function Attrs: mustprogress nounwind uwtable
define linkonce_odr noundef signext i8 @_ZNK6icu_7515Normalizer2Impl17isAlgorithmicNoNoEt(ptr noundef nonnull align 8 dereferenceable(80) %this, i16 noundef zeroext %norm16) #2 comdat align 2 {
entry:
  %this.addr = alloca ptr, align 8
  %norm16.addr = alloca i16, align 2
  store ptr %this, ptr %this.addr, align 8
  store i16 %norm16, ptr %norm16.addr, align 2
  %this1 = load ptr, ptr %this.addr, align 8
  %limitNoNo = getelementptr inbounds %"class.icu_75::Normalizer2Impl", ptr %this1, i32 0, i32 10
  %0 = load i16, ptr %limitNoNo, align 2
  %conv = zext i16 %0 to i32
  %1 = load i16, ptr %norm16.addr, align 2
  %conv2 = zext i16 %1 to i32
  %cmp = icmp sle i32 %conv, %conv2
  br i1 %cmp, label %land.rhs, label %land.end

land.rhs:                                         ; preds = %entry
  %2 = load i16, ptr %norm16.addr, align 2
  %conv3 = zext i16 %2 to i32
  %minMaybeYes = getelementptr inbounds %"class.icu_75::Normalizer2Impl", ptr %this1, i32 0, i32 12
  %3 = load i16, ptr %minMaybeYes, align 2
  %conv4 = zext i16 %3 to i32
  %cmp5 = icmp slt i32 %conv3, %conv4
  br label %land.end

land.end:                                         ; preds = %land.rhs, %entry
  %4 = phi i1 [ false, %entry ], [ %cmp5, %land.rhs ]
  %conv6 = zext i1 %4 to i8
  ret i8 %conv6
}

; Function Attrs: mustprogress nounwind uwtable
define linkonce_odr noundef signext i8 @_ZNK6icu_7515Normalizer2Impl27norm16HasCompBoundaryBeforeEt(ptr noundef nonnull align 8 dereferenceable(80) %this, i16 noundef zeroext %norm16) #2 comdat align 2 {
entry:
  %this.addr = alloca ptr, align 8
  %norm16.addr = alloca i16, align 2
  store ptr %this, ptr %this.addr, align 8
  store i16 %norm16, ptr %norm16.addr, align 2
  %this1 = load ptr, ptr %this.addr, align 8
  %0 = load i16, ptr %norm16.addr, align 2
  %conv = zext i16 %0 to i32
  %minNoNoCompNoMaybeCC = getelementptr inbounds %"class.icu_75::Normalizer2Impl", ptr %this1, i32 0, i32 8
  %1 = load i16, ptr %minNoNoCompNoMaybeCC, align 2
  %conv2 = zext i16 %1 to i32
  %cmp = icmp slt i32 %conv, %conv2
  br i1 %cmp, label %lor.end, label %lor.rhs

lor.rhs:                                          ; preds = %entry
  %2 = load i16, ptr %norm16.addr, align 2
  %call = call noundef signext i8 @_ZNK6icu_7515Normalizer2Impl17isAlgorithmicNoNoEt(ptr noundef nonnull align 8 dereferenceable(80) %this1, i16 noundef zeroext %2)
  %tobool = icmp ne i8 %call, 0
  br label %lor.end

lor.end:                                          ; preds = %lor.rhs, %entry
  %3 = phi i1 [ true, %entry ], [ %tobool, %lor.rhs ]
  %conv3 = zext i1 %3 to i8
  ret i8 %conv3
}

; Function Attrs: mustprogress uwtable
define noundef signext i8 @_ZNK6icu_7515Normalizer2Impl21hasCompBoundaryBeforeEPKDsS2_(ptr noundef nonnull align 8 dereferenceable(80) %this, ptr noundef %src, ptr noundef %limit) #0 align 2 {
entry:
  %retval = alloca i8, align 1
  %this.addr = alloca ptr, align 8
  %src.addr = alloca ptr, align 8
  %limit.addr = alloca ptr, align 8
  %c = alloca i32, align 4
  %norm16 = alloca i16, align 2
  %__index = alloca i32, align 4
  %__c2 = alloca i16, align 2
  store ptr %this, ptr %this.addr, align 8
  store ptr %src, ptr %src.addr, align 8
  store ptr %limit, ptr %limit.addr, align 8
  %this1 = load ptr, ptr %this.addr, align 8
  %0 = load ptr, ptr %src.addr, align 8
  %1 = load ptr, ptr %limit.addr, align 8
  %cmp = icmp eq ptr %0, %1
  br i1 %cmp, label %if.then, label %lor.lhs.false

lor.lhs.false:                                    ; preds = %entry
  %2 = load ptr, ptr %src.addr, align 8
  %3 = load i16, ptr %2, align 2
  %conv = zext i16 %3 to i32
  %minCompNoMaybeCP = getelementptr inbounds %"class.icu_75::Normalizer2Impl", ptr %this1, i32 0, i32 2
  %4 = load i16, ptr %minCompNoMaybeCP, align 2
  %conv2 = zext i16 %4 to i32
  %cmp3 = icmp slt i32 %conv, %conv2
  br i1 %cmp3, label %if.then, label %if.end

if.then:                                          ; preds = %lor.lhs.false, %entry
  store i8 1, ptr %retval, align 1
  br label %return

if.end:                                           ; preds = %lor.lhs.false
  br label %do.body

do.body:                                          ; preds = %if.end
  %5 = load ptr, ptr %src.addr, align 8
  %incdec.ptr = getelementptr inbounds i16, ptr %5, i32 1
  store ptr %incdec.ptr, ptr %src.addr, align 8
  %6 = load i16, ptr %5, align 2
  %conv4 = zext i16 %6 to i32
  store i32 %conv4, ptr %c, align 4
  %7 = load i32, ptr %c, align 4
  %and = and i32 %7, -2048
  %cmp5 = icmp eq i32 %and, 55296
  br i1 %cmp5, label %if.else, label %if.then6

if.then6:                                         ; preds = %do.body
  %normTrie = getelementptr inbounds %"class.icu_75::Normalizer2Impl", ptr %this1, i32 0, i32 13
  %8 = load ptr, ptr %normTrie, align 8
  %index = getelementptr inbounds %struct.UCPTrie, ptr %8, i32 0, i32 0
  %9 = load ptr, ptr %index, align 8
  %10 = load i32, ptr %c, align 4
  %shr = ashr i32 %10, 6
  %idxprom = sext i32 %shr to i64
  %arrayidx = getelementptr inbounds i16, ptr %9, i64 %idxprom
  %11 = load i16, ptr %arrayidx, align 2
  %conv7 = zext i16 %11 to i32
  %12 = load i32, ptr %c, align 4
  %and8 = and i32 %12, 63
  %add = add nsw i32 %conv7, %and8
  store i32 %add, ptr %__index, align 4
  br label %if.end30

if.else:                                          ; preds = %do.body
  %13 = load i32, ptr %c, align 4
  %and9 = and i32 %13, 1024
  %cmp10 = icmp eq i32 %and9, 0
  br i1 %cmp10, label %land.lhs.true, label %if.else25

land.lhs.true:                                    ; preds = %if.else
  %14 = load ptr, ptr %src.addr, align 8
  %15 = load ptr, ptr %limit.addr, align 8
  %cmp11 = icmp ne ptr %14, %15
  br i1 %cmp11, label %land.lhs.true12, label %if.else25

land.lhs.true12:                                  ; preds = %land.lhs.true
  %16 = load ptr, ptr %src.addr, align 8
  %17 = load i16, ptr %16, align 2
  store i16 %17, ptr %__c2, align 2
  %conv13 = zext i16 %17 to i32
  %and14 = and i32 %conv13, -1024
  %cmp15 = icmp eq i32 %and14, 56320
  br i1 %cmp15, label %if.then16, label %if.else25

if.then16:                                        ; preds = %land.lhs.true12
  %18 = load ptr, ptr %src.addr, align 8
  %incdec.ptr17 = getelementptr inbounds i16, ptr %18, i32 1
  store ptr %incdec.ptr17, ptr %src.addr, align 8
  %19 = load i32, ptr %c, align 4
  %shl = shl i32 %19, 10
  %20 = load i16, ptr %__c2, align 2
  %conv18 = zext i16 %20 to i32
  %add19 = add nsw i32 %shl, %conv18
  %sub = sub nsw i32 %add19, 56613888
  store i32 %sub, ptr %c, align 4
  %21 = load i32, ptr %c, align 4
  %normTrie20 = getelementptr inbounds %"class.icu_75::Normalizer2Impl", ptr %this1, i32 0, i32 13
  %22 = load ptr, ptr %normTrie20, align 8
  %highStart = getelementptr inbounds %struct.UCPTrie, ptr %22, i32 0, i32 4
  %23 = load i32, ptr %highStart, align 8
  %cmp21 = icmp sge i32 %21, %23
  br i1 %cmp21, label %cond.true, label %cond.false

cond.true:                                        ; preds = %if.then16
  %normTrie22 = getelementptr inbounds %"class.icu_75::Normalizer2Impl", ptr %this1, i32 0, i32 13
  %24 = load ptr, ptr %normTrie22, align 8
  %dataLength = getelementptr inbounds %struct.UCPTrie, ptr %24, i32 0, i32 3
  %25 = load i32, ptr %dataLength, align 4
  %sub23 = sub nsw i32 %25, 2
  br label %cond.end

cond.false:                                       ; preds = %if.then16
  %normTrie24 = getelementptr inbounds %"class.icu_75::Normalizer2Impl", ptr %this1, i32 0, i32 13
  %26 = load ptr, ptr %normTrie24, align 8
  %27 = load i32, ptr %c, align 4
  %call = call i32 @ucptrie_internalSmallIndex_75(ptr noundef %26, i32 noundef %27)
  br label %cond.end

cond.end:                                         ; preds = %cond.false, %cond.true
  %cond = phi i32 [ %sub23, %cond.true ], [ %call, %cond.false ]
  store i32 %cond, ptr %__index, align 4
  br label %if.end29

if.else25:                                        ; preds = %land.lhs.true12, %land.lhs.true, %if.else
  %normTrie26 = getelementptr inbounds %"class.icu_75::Normalizer2Impl", ptr %this1, i32 0, i32 13
  %28 = load ptr, ptr %normTrie26, align 8
  %dataLength27 = getelementptr inbounds %struct.UCPTrie, ptr %28, i32 0, i32 3
  %29 = load i32, ptr %dataLength27, align 4
  %sub28 = sub nsw i32 %29, 1
  store i32 %sub28, ptr %__index, align 4
  br label %if.end29

if.end29:                                         ; preds = %if.else25, %cond.end
  br label %if.end30

if.end30:                                         ; preds = %if.end29, %if.then6
  %normTrie31 = getelementptr inbounds %"class.icu_75::Normalizer2Impl", ptr %this1, i32 0, i32 13
  %30 = load ptr, ptr %normTrie31, align 8
  %data = getelementptr inbounds %struct.UCPTrie, ptr %30, i32 0, i32 1
  %31 = load ptr, ptr %data, align 8
  %32 = load i32, ptr %__index, align 4
  %idxprom32 = sext i32 %32 to i64
  %arrayidx33 = getelementptr inbounds i16, ptr %31, i64 %idxprom32
  %33 = load i16, ptr %arrayidx33, align 2
  store i16 %33, ptr %norm16, align 2
  br label %do.end

do.end:                                           ; preds = %if.end30
  %34 = load i16, ptr %norm16, align 2
  %call34 = call noundef signext i8 @_ZNK6icu_7515Normalizer2Impl27norm16HasCompBoundaryBeforeEt(ptr noundef nonnull align 8 dereferenceable(80) %this1, i16 noundef zeroext %34)
  store i8 %call34, ptr %retval, align 1
  br label %return

return:                                           ; preds = %do.end, %if.then
  %35 = load i8, ptr %retval, align 1
  ret i8 %35
}