; Function Attrs: mustprogress uwtable
define noundef signext i8 @_ZNK6icu_7515Normalizer2Impl21hasCompBoundaryBeforeEPKDsS2_(ptr nocapture noundef nonnull readonly align 8 dereferenceable(80) %this, ptr noundef readonly %src, ptr noundef readnone %limit) local_unnamed_addr #0 align 2 {
entry:
  %cmp = icmp eq ptr %src, %limit
  br i1 %cmp, label %return, label %lor.lhs.false

lor.lhs.false:                                    ; preds = %entry
  %0 = load i16, ptr %src, align 2
  %conv = zext i16 %0 to i32
  %minCompNoMaybeCP = getelementptr inbounds i8, ptr %this, i64 10
  %1 = load i16, ptr %minCompNoMaybeCP, align 2
  %cmp3 = icmp ult i16 %0, %1
  br i1 %cmp3, label %return, label %do.body

do.body:                                          ; preds = %lor.lhs.false
  %incdec.ptr = getelementptr inbounds i8, ptr %src, i64 2
  %and = and i32 %conv, 63488
  %cmp5 = icmp eq i32 %and, 55296
  br i1 %cmp5, label %if.else, label %if.then6

if.then6:                                         ; preds = %do.body
  %normTrie = getelementptr inbounds i8, ptr %this, i64 32
  %2 = load ptr, ptr %normTrie, align 8
  %3 = load ptr, ptr %2, align 8
  %shr = lshr i32 %conv, 6
  %idxprom = zext nneg i32 %shr to i64
  %arrayidx = getelementptr inbounds i16, ptr %3, i64 %idxprom
  %4 = load i16, ptr %arrayidx, align 2
  %conv7 = zext i16 %4 to i32
  %and8 = and i32 %conv, 63
  %add = add nuw nsw i32 %and8, %conv7
  br label %if.end30

if.else:                                          ; preds = %do.body
  %and9 = and i32 %conv, 1024
  %cmp10 = icmp ne i32 %and9, 0
  %cmp11.not = icmp eq ptr %incdec.ptr, %limit
  %or.cond = select i1 %cmp10, i1 true, i1 %cmp11.not
  br i1 %or.cond, label %if.else25, label %land.lhs.true12

land.lhs.true12:                                  ; preds = %if.else
  %5 = load i16, ptr %incdec.ptr, align 2
  %conv13 = zext i16 %5 to i32
  %and14 = and i32 %conv13, 64512
  %cmp15 = icmp eq i32 %and14, 56320
  br i1 %cmp15, label %if.then16, label %if.else25

if.then16:                                        ; preds = %land.lhs.true12
  %shl = shl nuw nsw i32 %conv, 10
  %add19 = add nsw i32 %shl, -56613888
  %sub = add nuw nsw i32 %add19, %conv13
  %normTrie20 = getelementptr inbounds i8, ptr %this, i64 32
  %6 = load ptr, ptr %normTrie20, align 8
  %highStart = getelementptr inbounds i8, ptr %6, i64 24
  %7 = load i32, ptr %highStart, align 8
  %cmp21.not = icmp slt i32 %sub, %7
  br i1 %cmp21.not, label %cond.false, label %cond.true

cond.true:                                        ; preds = %if.then16
  %dataLength = getelementptr inbounds i8, ptr %6, i64 20
  %8 = load i32, ptr %dataLength, align 4
  %sub23 = add nsw i32 %8, -2
  br label %if.end30

cond.false:                                       ; preds = %if.then16
  %call = tail call i32 @ucptrie_internalSmallIndex_75(ptr noundef nonnull %6, i32 noundef %sub)
  %.pre = load ptr, ptr %normTrie20, align 8
  br label %if.end30

if.else25:                                        ; preds = %land.lhs.true12, %if.else
  %normTrie26 = getelementptr inbounds i8, ptr %this, i64 32
  %9 = load ptr, ptr %normTrie26, align 8
  %dataLength27 = getelementptr inbounds i8, ptr %9, i64 20
  %10 = load i32, ptr %dataLength27, align 4
  %sub28 = add nsw i32 %10, -1
  br label %if.end30

if.end30:                                         ; preds = %cond.true, %cond.false, %if.else25, %if.then6
  %11 = phi ptr [ %9, %if.else25 ], [ %2, %if.then6 ], [ %6, %cond.true ], [ %.pre, %cond.false ]
  %__index.0 = phi i32 [ %sub28, %if.else25 ], [ %add, %if.then6 ], [ %sub23, %cond.true ], [ %call, %cond.false ]
  %data = getelementptr inbounds i8, ptr %11, i64 8
  %12 = load ptr, ptr %data, align 8
  %idxprom32 = sext i32 %__index.0 to i64
  %arrayidx33 = getelementptr inbounds i16, ptr %12, i64 %idxprom32
  %13 = load i16, ptr %arrayidx33, align 2
  %minNoNoCompNoMaybeCC.i = getelementptr inbounds i8, ptr %this, i64 22
  %14 = load i16, ptr %minNoNoCompNoMaybeCC.i, align 2
  %cmp.i = icmp ugt i16 %14, %13
  br i1 %cmp.i, label %return, label %lor.rhs.i

lor.rhs.i:                                        ; preds = %if.end30
  %limitNoNo.i.i = getelementptr inbounds i8, ptr %this, i64 26
  %15 = load i16, ptr %limitNoNo.i.i, align 2
  %cmp.not.i.i = icmp ule i16 %15, %13
  %minMaybeYes.i.i = getelementptr inbounds i8, ptr %this, i64 30
  %16 = load i16, ptr %minMaybeYes.i.i, align 2
  %cmp5.i.i = icmp ugt i16 %16, %13
  %narrow.i.i = select i1 %cmp.not.i.i, i1 %cmp5.i.i, i1 false
  %conv6.i.i = zext i1 %narrow.i.i to i8
  br label %return

return:                                           ; preds = %lor.rhs.i, %if.end30, %entry, %lor.lhs.false
  %retval.0 = phi i8 [ 1, %lor.lhs.false ], [ 1, %entry ], [ 1, %if.end30 ], [ %conv6.i.i, %lor.rhs.i ]
  ret i8 %retval.0
}